target datalayout = "e-m:e-p270:32:32-p271:32:32-p272:64:64-i64:64-i128:128-f80:128-n8:16:32:64-S128"
target triple = "x86_64-pc-linux-gnu"

; Function Attrs: inlinehint nounwind uwtable
define internal i32 @Abc_Var2Lit(i32 noundef %0, i32 noundef %1) #1 {
  %3 = alloca i32, align 4
  %4 = alloca i32, align 4
  store i32 %0, ptr %3, align 4, !tbaa !3
  store i32 %1, ptr %4, align 4, !tbaa !3
  %5 = load i32, ptr %3, align 4, !tbaa !3
  %6 = load i32, ptr %3, align 4, !tbaa !3
  %7 = add nsw i32 %5, %6
  %8 = load i32, ptr %4, align 4, !tbaa !3
  %9 = add nsw i32 %7, %8
  ret i32 %9
}

; Function Attrs: nounwind uwtable
define i32 @Abc_NodeVarY(i32 noundef %0, i32 noundef %1, i32 noundef %2) #0 {
  %4 = alloca i32, align 4
  %5 = alloca i32, align 4
  %6 = alloca i32, align 4
  store i32 %0, ptr %4, align 4, !tbaa !3
  store i32 %1, ptr %5, align 4, !tbaa !3
  store i32 %2, ptr %6, align 4, !tbaa !3
  %7 = load i32, ptr %4, align 4, !tbaa !3
  %8 = load i32, ptr %4, align 4, !tbaa !3
  %9 = add nsw i32 %8, 1
  %10 = mul nsw i32 %7, %9
  %11 = load i32, ptr %4, align 4, !tbaa !3
  %12 = load i32, ptr %6, align 4, !tbaa !3
  %13 = mul nsw i32 %11, %12
  %14 = add nsw i32 %10, %13
  %15 = load i32, ptr %5, align 4, !tbaa !3
  %16 = add nsw i32 %14, %15
  %17 = call i32 @Abc_Var2Lit(i32 noundef %16, i32 noundef 0)
  ret i32 %17
}

; Function Attrs: nounwind uwtable
define i32 @Abc_NodeVarX(i32 noundef %0, i32 noundef %1, i32 noundef %2) #0 {
  %4 = alloca i32, align 4
  %5 = alloca i32, align 4
  %6 = alloca i32, align 4
  store i32 %0, ptr %4, align 4, !tbaa !3
  store i32 %1, ptr %5, align 4, !tbaa !3
  store i32 %2, ptr %6, align 4, !tbaa !3
  %7 = load i32, ptr %4, align 4, !tbaa !3
  %8 = load i32, ptr %5, align 4, !tbaa !3
  %9 = mul nsw i32 %7, %8
  %10 = load i32, ptr %6, align 4, !tbaa !3
  %11 = add nsw i32 %9, %10
  %12 = call i32 @Abc_Var2Lit(i32 noundef %11, i32 noundef 0)
  ret i32 %12
}

; Function Attrs: nounwind uwtable
define ptr @Abc_EnumeratePaths(i32 noundef %0) #0 {
  %2 = alloca i32, align 4
  %3 = alloca ptr, align 8
  %4 = alloca ptr, align 8
  %5 = alloca ptr, align 8
  %6 = alloca i32, align 4
  %7 = alloca i32, align 4
  %8 = alloca i32, align 4
  %9 = alloca i32, align 4
  %10 = alloca i32, align 4
  store i32 %0, ptr %2, align 4, !tbaa !3
  call void @llvm.lifetime.start.p0(i64 8, ptr %3) #12
  call void @llvm.lifetime.start.p0(i64 8, ptr %4) #12
  %11 = call ptr @Gia_ManStart(i32 noundef 10000)
  store ptr %11, ptr %4, align 8, !tbaa !7
  call void @llvm.lifetime.start.p0(i64 8, ptr %5) #12
  %12 = load i32, ptr %2, align 4, !tbaa !3
  %13 = add nsw i32 %12, 1
  %14 = sext i32 %13 to i64
  %15 = call noalias ptr @calloc(i64 noundef %14, i64 noundef 4) #13
  store ptr %15, ptr %5, align 8, !tbaa !10
  call void @llvm.lifetime.start.p0(i64 4, ptr %6) #12
  call void @llvm.lifetime.start.p0(i64 4, ptr %7) #12
  call void @llvm.lifetime.start.p0(i64 4, ptr %8) #12
  %16 = load i32, ptr %2, align 4, !tbaa !3
  %17 = mul nsw i32 2, %16
  %18 = load i32, ptr %2, align 4, !tbaa !3
  %19 = add nsw i32 %18, 1
  %20 = mul nsw i32 %17, %19
  store i32 %20, ptr %8, align 4, !tbaa !3
  store i32 0, ptr %6, align 4, !tbaa !3
  br label %21

21:                                               ; preds = %28, %1
  %22 = load i32, ptr %6, align 4, !tbaa !3
  %23 = load i32, ptr %8, align 4, !tbaa !3
  %24 = icmp slt i32 %22, %23
  br i1 %24, label %25, label %31

25:                                               ; preds = %21
  %26 = load ptr, ptr %4, align 8, !tbaa !7
  %27 = call i32 @Gia_ManAppendCi(ptr noundef %26)
  br label %28

28:                                               ; preds = %25
  %29 = load i32, ptr %6, align 4, !tbaa !3
  %30 = add nsw i32 %29, 1
  store i32 %30, ptr %6, align 4, !tbaa !3
  br label %21, !llvm.loop !12

31:                                               ; preds = %21
  %32 = load ptr, ptr %4, align 8, !tbaa !7
  call void @Gia_ManHashAlloc(ptr noundef %32)
  %33 = load ptr, ptr %5, align 8, !tbaa !10
  %34 = getelementptr inbounds i32, ptr %33, i64 0
  store i32 1, ptr %34, align 4, !tbaa !3
  store i32 1, ptr %6, align 4, !tbaa !3
  br label %35

35:                                               ; preds = %55, %31
  %36 = load i32, ptr %6, align 4, !tbaa !3
  %37 = load i32, ptr %2, align 4, !tbaa !3
  %38 = icmp sle i32 %36, %37
  br i1 %38, label %39, label %58

39:                                               ; preds = %35
  %40 = load ptr, ptr %4, align 8, !tbaa !7
  %41 = load ptr, ptr %5, align 8, !tbaa !10
  %42 = load i32, ptr %6, align 4, !tbaa !3
  %43 = sub nsw i32 %42, 1
  %44 = sext i32 %43 to i64
  %45 = getelementptr inbounds i32, ptr %41, i64 %44
  %46 = load i32, ptr %45, align 4, !tbaa !3
  %47 = load i32, ptr %2, align 4, !tbaa !3
  %48 = load i32, ptr %6, align 4, !tbaa !3
  %49 = call i32 @Abc_NodeVarX(i32 noundef %47, i32 noundef 0, i32 noundef %48)
  %50 = call i32 @Gia_ManHashAnd(ptr noundef %40, i32 noundef %46, i32 noundef %49)
  %51 = load ptr, ptr %5, align 8, !tbaa !10
  %52 = load i32, ptr %6, align 4, !tbaa !3
  %53 = sext i32 %52 to i64
  %54 = getelementptr inbounds i32, ptr %51, i64 %53
  store i32 %50, ptr %54, align 4, !tbaa !3
  br label %55

55:                                               ; preds = %39
  %56 = load i32, ptr %6, align 4, !tbaa !3
  %57 = add nsw i32 %56, 1
  store i32 %57, ptr %6, align 4, !tbaa !3
  br label %35, !llvm.loop !14

58:                                               ; preds = %35
  store i32 1, ptr %7, align 4, !tbaa !3
  br label %59

59:                                               ; preds = %114, %58
  %60 = load i32, ptr %7, align 4, !tbaa !3
  %61 = load i32, ptr %2, align 4, !tbaa !3
  %62 = icmp sle i32 %60, %61
  br i1 %62, label %63, label %117

63:                                               ; preds = %59
  %64 = load ptr, ptr %4, align 8, !tbaa !7
  %65 = load ptr, ptr %5, align 8, !tbaa !10
  %66 = getelementptr inbounds i32, ptr %65, i64 0
  %67 = load i32, ptr %66, align 4, !tbaa !3
  %68 = load i32, ptr %2, align 4, !tbaa !3
  %69 = load i32, ptr %7, align 4, !tbaa !3
  %70 = call i32 @Abc_NodeVarY(i32 noundef %68, i32 noundef %69, i32 noundef 0)
  %71 = call i32 @Gia_ManHashAnd(ptr noundef %64, i32 noundef %67, i32 noundef %70)
  %72 = load ptr, ptr %5, align 8, !tbaa !10
  %73 = getelementptr inbounds i32, ptr %72, i64 0
  store i32 %71, ptr %73, align 4, !tbaa !3
  store i32 1, ptr %6, align 4, !tbaa !3
  br label %74

74:                                               ; preds = %110, %63
  %75 = load i32, ptr %6, align 4, !tbaa !3
  %76 = load i32, ptr %2, align 4, !tbaa !3
  %77 = icmp sle i32 %75, %76
  br i1 %77, label %78, label %113

78:                                               ; preds = %74
  call void @llvm.lifetime.start.p0(i64 4, ptr %9) #12
  %79 = load ptr, ptr %4, align 8, !tbaa !7
  %80 = load ptr, ptr %5, align 8, !tbaa !10
  %81 = load i32, ptr %6, align 4, !tbaa !3
  %82 = sub nsw i32 %81, 1
  %83 = sext i32 %82 to i64
  %84 = getelementptr inbounds i32, ptr %80, i64 %83
  %85 = load i32, ptr %84, align 4, !tbaa !3
  %86 = load i32, ptr %2, align 4, !tbaa !3
  %87 = load i32, ptr %7, align 4, !tbaa !3
  %88 = load i32, ptr %6, align 4, !tbaa !3
  %89 = call i32 @Abc_NodeVarX(i32 noundef %86, i32 noundef %87, i32 noundef %88)
  %90 = call i32 @Gia_ManHashAnd(ptr noundef %79, i32 noundef %85, i32 noundef %89)
  store i32 %90, ptr %9, align 4, !tbaa !3
  call void @llvm.lifetime.start.p0(i64 4, ptr %10) #12
  %91 = load ptr, ptr %4, align 8, !tbaa !7
  %92 = load ptr, ptr %5, align 8, !tbaa !10
  %93 = load i32, ptr %6, align 4, !tbaa !3
  %94 = sext i32 %93 to i64
  %95 = getelementptr inbounds i32, ptr %92, i64 %94
  %96 = load i32, ptr %95, align 4, !tbaa !3
  %97 = load i32, ptr %2, align 4, !tbaa !3
  %98 = load i32, ptr %7, align 4, !tbaa !3
  %99 = load i32, ptr %6, align 4, !tbaa !3
  %100 = call i32 @Abc_NodeVarY(i32 noundef %97, i32 noundef %98, i32 noundef %99)
  %101 = call i32 @Gia_ManHashAnd(ptr noundef %91, i32 noundef %96, i32 noundef %100)
  store i32 %101, ptr %10, align 4, !tbaa !3
  %102 = load ptr, ptr %4, align 8, !tbaa !7
  %103 = load i32, ptr %9, align 4, !tbaa !3
  %104 = load i32, ptr %10, align 4, !tbaa !3
  %105 = call i32 @Gia_ManHashOr(ptr noundef %102, i32 noundef %103, i32 noundef %104)
  %106 = load ptr, ptr %5, align 8, !tbaa !10
  %107 = load i32, ptr %6, align 4, !tbaa !3
  %108 = sext i32 %107 to i64
  %109 = getelementptr inbounds i32, ptr %106, i64 %108
  store i32 %105, ptr %109, align 4, !tbaa !3
  call void @llvm.lifetime.end.p0(i64 4, ptr %10) #12
  call void @llvm.lifetime.end.p0(i64 4, ptr %9) #12
  br label %110

110:                                              ; preds = %78
  %111 = load i32, ptr %6, align 4, !tbaa !3
  %112 = add nsw i32 %111, 1
  store i32 %112, ptr %6, align 4, !tbaa !3
  br label %74, !llvm.loop !15

113:                                              ; preds = %74
  br label %114

114:                                              ; preds = %113
  %115 = load i32, ptr %7, align 4, !tbaa !3
  %116 = add nsw i32 %115, 1
  store i32 %116, ptr %7, align 4, !tbaa !3
  br label %59, !llvm.loop !16

117:                                              ; preds = %59
  %118 = load ptr, ptr %4, align 8, !tbaa !7
  %119 = load ptr, ptr %5, align 8, !tbaa !10
  %120 = load i32, ptr %2, align 4, !tbaa !3
  %121 = sext i32 %120 to i64
  %122 = getelementptr inbounds i32, ptr %119, i64 %121
  %123 = load i32, ptr %122, align 4, !tbaa !3
  %124 = call i32 @Gia_ManAppendCo(ptr noundef %118, i32 noundef %123)
  %125 = load ptr, ptr %4, align 8, !tbaa !7
  store ptr %125, ptr %3, align 8, !tbaa !7
  %126 = call ptr @Gia_ManCleanup(ptr noundef %125)
  store ptr %126, ptr %4, align 8, !tbaa !7
  %127 = load ptr, ptr %3, align 8, !tbaa !7
  call void @Gia_ManStop(ptr noundef %127)
  %128 = load ptr, ptr %5, align 8, !tbaa !10
  %129 = icmp ne ptr %128, null
  br i1 %129, label %130, label %132

130:                                              ; preds = %117
  %131 = load ptr, ptr %5, align 8, !tbaa !10
  call void @free(ptr noundef %131) #12
  store ptr null, ptr %5, align 8, !tbaa !10
  br label %133

132:                                              ; preds = %117
  br label %133

133:                                              ; preds = %132, %130
  %134 = load ptr, ptr %4, align 8, !tbaa !7
  call void @llvm.lifetime.end.p0(i64 4, ptr %8) #12
  call void @llvm.lifetime.end.p0(i64 4, ptr %7) #12
  call void @llvm.lifetime.end.p0(i64 4, ptr %6) #12
  call void @llvm.lifetime.end.p0(i64 8, ptr %5) #12
  call void @llvm.lifetime.end.p0(i64 8, ptr %4) #12
  call void @llvm.lifetime.end.p0(i64 8, ptr %3) #12
  ret ptr %134
}