; Function Attrs: nounwind uwtable
define ptr @Abc_EnumeratePaths(i32 noundef %0) local_unnamed_addr #1 {
  %2 = tail call ptr @Gia_ManStart(i32 noundef 10000) #23
  %3 = add nsw i32 %0, 1
  %4 = sext i32 %3 to i64
  %5 = tail call noalias ptr @calloc(i64 noundef %4, i64 noundef 4) #24
  %6 = shl nsw i32 %0, 1
  %7 = mul nsw i32 %6, %3
  %8 = icmp sgt i32 %7, 0
  br i1 %8, label %.lr.ph, label %._crit_edge

.lr.ph:                                           ; preds = %1, %.lr.ph
  %.059 = phi i32 [ %9, %.lr.ph ], [ 0, %1 ]
  tail call fastcc void @Gia_ManAppendCi(ptr noundef %2)
  %9 = add nuw nsw i32 %.059, 1
  %exitcond.not = icmp eq i32 %9, %7
  br i1 %exitcond.not, label %._crit_edge, label %.lr.ph, !llvm.loop !3

._crit_edge:                                      ; preds = %.lr.ph, %1
  tail call void @Gia_ManHashAlloc(ptr noundef %2) #23
  store i32 1, ptr %5, align 4, !tbaa !5
  %.not60 = icmp slt i32 %0, 1
  br i1 %.not60, label %._crit_edge72, label %.lr.ph63.preheader

.lr.ph63.preheader:                               ; preds = %._crit_edge
  %wide.trip.count = zext nneg i32 %3 to i64
  br label %.lr.ph63

.lr.ph71:                                         ; preds = %.lr.ph63
  %10 = mul i32 %3, %0
  %.promoted = load i32, ptr %5, align 4, !tbaa !5
  %11 = zext nneg i32 %3 to i64
  %12 = zext nneg i32 %0 to i64
  br label %.lr.ph67

.lr.ph63:                                         ; preds = %.lr.ph63.preheader, %.lr.ph63
  %indvars.iv = phi i64 [ 1, %.lr.ph63.preheader ], [ %indvars.iv.next, %.lr.ph63 ]
  %13 = getelementptr i32, ptr %5, i64 %indvars.iv
  %14 = getelementptr i8, ptr %13, i64 -4
  %15 = load i32, ptr %14, align 4, !tbaa !5
  %indvars.iv.tr = trunc i64 %indvars.iv to i32
  %16 = shl i32 %indvars.iv.tr, 1
  %17 = tail call i32 @Gia_ManHashAnd(ptr noundef %2, i32 noundef %15, i32 noundef %16) #23
  store i32 %17, ptr %13, align 4, !tbaa !5
  %indvars.iv.next = add nuw nsw i64 %indvars.iv, 1
  %exitcond74.not = icmp eq i64 %indvars.iv.next, %wide.trip.count
  br i1 %exitcond74.not, label %.lr.ph71, label %.lr.ph63, !llvm.loop !9

.lr.ph67:                                         ; preds = %.lr.ph71, %._crit_edge68
  %indvars.iv80 = phi i64 [ 1, %.lr.ph71 ], [ %indvars.iv.next81, %._crit_edge68 ]
  %18 = phi i32 [ %.promoted, %.lr.ph71 ], [ %21, %._crit_edge68 ]
  %19 = trunc i64 %indvars.iv80 to i32
  %.tr = add i32 %10, %19
  %20 = shl i32 %.tr, 1
  %21 = tail call i32 @Gia_ManHashAnd(ptr noundef %2, i32 noundef %18, i32 noundef %20) #23
  store i32 %21, ptr %5, align 4, !tbaa !5
  %22 = mul nuw nsw i64 %indvars.iv80, %12
  %23 = trunc nuw nsw i64 %indvars.iv80 to i32
  br label %24

24:                                               ; preds = %.lr.ph67, %24
  %indvars.iv75 = phi i64 [ 1, %.lr.ph67 ], [ %indvars.iv.next76, %24 ]
  %25 = getelementptr i32, ptr %5, i64 %indvars.iv75
  %26 = getelementptr i8, ptr %25, i64 -4
  %27 = load i32, ptr %26, align 4, !tbaa !5
  %28 = add nuw nsw i64 %indvars.iv75, %22
  %.tr85 = trunc i64 %28 to i32
  %29 = shl i32 %.tr85, 1
  %30 = tail call i32 @Gia_ManHashAnd(ptr noundef %2, i32 noundef %27, i32 noundef %29) #23
  %31 = load i32, ptr %25, align 4, !tbaa !5
  %32 = trunc i64 %indvars.iv75 to i32
  %33 = add i32 %3, %32
  %34 = mul i32 %33, %0
  %35 = add nsw i32 %34, %23
  %36 = shl nsw i32 %35, 1
  %37 = tail call i32 @Gia_ManHashAnd(ptr noundef %2, i32 noundef %31, i32 noundef %36) #23
  %38 = tail call i32 @Gia_ManHashOr(ptr noundef %2, i32 noundef %30, i32 noundef %37) #23
  store i32 %38, ptr %25, align 4, !tbaa !5
  %indvars.iv.next76 = add nuw nsw i64 %indvars.iv75, 1
  %exitcond79.not = icmp eq i64 %indvars.iv.next76, %11
  br i1 %exitcond79.not, label %._crit_edge68, label %24, !llvm.loop !10

._crit_edge68:                                    ; preds = %24
  %indvars.iv.next81 = add nuw nsw i64 %indvars.iv80, 1
  %exitcond84.not = icmp eq i64 %indvars.iv.next81, %11
  br i1 %exitcond84.not, label %._crit_edge72, label %.lr.ph67, !llvm.loop !11

._crit_edge72:                                    ; preds = %._crit_edge68, %._crit_edge
  %39 = sext i32 %0 to i64
  %40 = getelementptr inbounds i32, ptr %5, i64 %39
  %41 = load i32, ptr %40, align 4, !tbaa !5
  tail call fastcc void @Gia_ManAppendCo(ptr noundef %2, i32 noundef %41)
  %42 = tail call ptr @Gia_ManCleanup(ptr noundef %2) #23
  tail call void @Gia_ManStop(ptr noundef %2) #23
  tail call void @free(ptr noundef nonnull %5) #23
  ret ptr %42
}